target datalayout = "e-m:e-p270:32:32-p271:32:32-p272:64:64-i64:64-i128:128-f80:128-n8:16:32:64-S128"
target triple = "x86_64-pc-linux-gnu"

%struct.AVCodecContext = type { ptr, i32, i32, ptr, i32, i32, ptr, ptr, ptr, i64, i32, i32, ptr, i32, %struct.AVRational, %struct.AVRational, %struct.AVRational, i32, i32, i32, i32, i32, %struct.AVRational, i32, i32, i32, i32, i32, i32, i32, i32, i32, i32, i32, ptr, ptr, i32, float, float, float, float, float, float, float, float, float, i32, i32, i32, i32, i32, i32, i32, i32, i32, i32, i32, i32, ptr, ptr, ptr, i32, i32, i32, i32, i32, i32, i32, i32, i32, i32, %struct.AVChannelLayout, i32, i32, i32, i32, i32, i32, i32, i32, ptr, i32, i32, i32, float, float, i32, i32, i32, i32, i32, ptr, i64, i64, float, float, i32, i32, ptr, ptr, i32, i32, i32, i32, i32, ptr, ptr, ptr, ptr, i32, i32, [8 x i64], i32, i32, i32, i32, i32, i32, i32, ptr, ptr, i32, i32, i32, i32, i32, i32, i32, i32, i32, i32, ptr, ptr, i32, i32, ptr, ptr, ptr, ptr, i32, i32, i64, i32, i32, i64, ptr, i64, ptr, i32, ptr, i32 }
%struct.AVRational = type { i32, i32 }
%struct.AVChannelLayout = type { i32, i32, %union.anon.1, ptr }
%union.anon.1 = type { i64 }
%struct.WavPackEncodeContext = type { ptr, ptr, %struct.PutBitContext, i32, i32, i32, i32, i32, i32, [2 x ptr], [2 x i32], [18 x [2 x ptr]], [18 x [2 x i32]], [2 x [2 x ptr]], [2 x [2 x i32]], [2 x ptr], [2 x i32], ptr, ptr, i32, i32, ptr, ptr, i32, i32, i32, i32, i32, i32, i32, i32, i32, %struct.WavPackWords, i8, i8, i8, i8, i8, i8, i8, i8, i32, i32, i32, i32, i32, i32, i32, i32, i32, i32, i32, i32, i32, i32, [16 x %struct.Decorr], ptr, float }
%struct.PutBitContext = type { i32, i32, ptr, ptr, ptr }
%struct.WavPackWords = type { i32, i32, i32, i32, i32, [2 x %struct.WvChannel] }
%struct.WvChannel = type { [3 x i32], i32, i32, i32, i32 }
%struct.Decorr = type { i32, i32, i32, i32, [8 x i32], [8 x i32], i32, i32 }

@.str.8 = private unnamed_addr constant [27 x i8] c"Invalid channel count: %d\0A\00", align 1
@.str.9 = private unnamed_addr constant [24 x i8] c"invalid block size: %d\0A\00", align 1
@decorr_filter_sizes = internal constant [4 x i16] [i16 256, i16 256, i16 256, i16 256], align 2
@decorr_filters = internal constant [4 x ptr] [ptr @fast_specs, ptr @default_specs, ptr @high_specs, ptr @very_high_specs], align 16

; Function Attrs: cold nounwind optsize uwtable
define internal i32 @wavpack_encode_init(ptr noundef %0) #0 {
  %2 = alloca i32, align 4
  %3 = alloca ptr, align 8
  %4 = alloca ptr, align 8
  %5 = alloca i32, align 4
  %6 = alloca i32, align 4
  store ptr %0, ptr %3, align 8, !tbaa !4
  call void @llvm.lifetime.start.p0(i64 8, ptr %4) #11
  %7 = load ptr, ptr %3, align 8, !tbaa !4
  %8 = getelementptr inbounds nuw %struct.AVCodecContext, ptr %7, i32 0, i32 6
  %9 = load ptr, ptr %8, align 8, !tbaa !9
  store ptr %9, ptr %4, align 8, !tbaa !29
  %10 = load ptr, ptr %3, align 8, !tbaa !4
  %11 = load ptr, ptr %4, align 8, !tbaa !29
  %12 = getelementptr inbounds nuw %struct.WavPackEncodeContext, ptr %11, i32 0, i32 1
  store ptr %10, ptr %12, align 8, !tbaa !31
  %13 = load ptr, ptr %3, align 8, !tbaa !4
  %14 = getelementptr inbounds nuw %struct.AVCodecContext, ptr %13, i32 0, i32 71
  %15 = getelementptr inbounds nuw %struct.AVChannelLayout, ptr %14, i32 0, i32 1
  %16 = load i32, ptr %15, align 4, !tbaa !36
  %17 = icmp sgt i32 %16, 255
  br i1 %17, label %18, label %24

18:                                               ; preds = %1
  %19 = load ptr, ptr %3, align 8, !tbaa !4
  %20 = load ptr, ptr %3, align 8, !tbaa !4
  %21 = getelementptr inbounds nuw %struct.AVCodecContext, ptr %20, i32 0, i32 71
  %22 = getelementptr inbounds nuw %struct.AVChannelLayout, ptr %21, i32 0, i32 1
  %23 = load i32, ptr %22, align 4, !tbaa !36
  call void (ptr, i32, ptr, ...) @av_log(ptr noundef %19, i32 noundef 16, ptr noundef @.str.8, i32 noundef %23)
  store i32 -22, ptr %2, align 4
  store i32 1, ptr %5, align 4
  br label %216

24:                                               ; preds = %1
  %25 = load ptr, ptr %3, align 8, !tbaa !4
  %26 = getelementptr inbounds nuw %struct.AVCodecContext, ptr %25, i32 0, i32 72
  %27 = load i32, ptr %26, align 8, !tbaa !37
  %28 = icmp ne i32 %27, 0
  br i1 %28, label %72, label %29

29:                                               ; preds = %24
  call void @llvm.lifetime.start.p0(i64 4, ptr %6) #11
  %30 = load ptr, ptr %3, align 8, !tbaa !4
  %31 = getelementptr inbounds nuw %struct.AVCodecContext, ptr %30, i32 0, i32 69
  %32 = load i32, ptr %31, align 8, !tbaa !38
  %33 = and i32 %32, 1
  %34 = icmp ne i32 %33, 0
  br i1 %34, label %40, label %35

35:                                               ; preds = %29
  %36 = load ptr, ptr %3, align 8, !tbaa !4
  %37 = getelementptr inbounds nuw %struct.AVCodecContext, ptr %36, i32 0, i32 69
  %38 = load i32, ptr %37, align 8, !tbaa !38
  %39 = sdiv i32 %38, 2
  store i32 %39, ptr %6, align 4, !tbaa !39
  br label %44

40:                                               ; preds = %29
  %41 = load ptr, ptr %3, align 8, !tbaa !4
  %42 = getelementptr inbounds nuw %struct.AVCodecContext, ptr %41, i32 0, i32 69
  %43 = load i32, ptr %42, align 8, !tbaa !38
  store i32 %43, ptr %6, align 4, !tbaa !39
  br label %44

44:                                               ; preds = %40, %35
  br label %45

45:                                               ; preds = %53, %44
  %46 = load i32, ptr %6, align 4, !tbaa !39
  %47 = load ptr, ptr %3, align 8, !tbaa !4
  %48 = getelementptr inbounds nuw %struct.AVCodecContext, ptr %47, i32 0, i32 71
  %49 = getelementptr inbounds nuw %struct.AVChannelLayout, ptr %48, i32 0, i32 1
  %50 = load i32, ptr %49, align 4, !tbaa !36
  %51 = mul nsw i32 %46, %50
  %52 = icmp sgt i32 %51, 150000
  br i1 %52, label %53, label %56

53:                                               ; preds = %45
  %54 = load i32, ptr %6, align 4, !tbaa !39
  %55 = sdiv i32 %54, 2
  store i32 %55, ptr %6, align 4, !tbaa !39
  br label %45, !llvm.loop !40

56:                                               ; preds = %45
  br label %57

57:                                               ; preds = %65, %56
  %58 = load i32, ptr %6, align 4, !tbaa !39
  %59 = load ptr, ptr %3, align 8, !tbaa !4
  %60 = getelementptr inbounds nuw %struct.AVCodecContext, ptr %59, i32 0, i32 71
  %61 = getelementptr inbounds nuw %struct.AVChannelLayout, ptr %60, i32 0, i32 1
  %62 = load i32, ptr %61, align 4, !tbaa !36
  %63 = mul nsw i32 %58, %62
  %64 = icmp slt i32 %63, 40000
  br i1 %64, label %65, label %68

65:                                               ; preds = %57
  %66 = load i32, ptr %6, align 4, !tbaa !39
  %67 = mul nsw i32 %66, 2
  store i32 %67, ptr %6, align 4, !tbaa !39
  br label %57, !llvm.loop !42

68:                                               ; preds = %57
  %69 = load i32, ptr %6, align 4, !tbaa !39
  %70 = load ptr, ptr %3, align 8, !tbaa !4
  %71 = getelementptr inbounds nuw %struct.AVCodecContext, ptr %70, i32 0, i32 72
  store i32 %69, ptr %71, align 8, !tbaa !37
  call void @llvm.lifetime.end.p0(i64 4, ptr %6) #11
  br label %93

72:                                               ; preds = %24
  %73 = load ptr, ptr %3, align 8, !tbaa !4
  %74 = getelementptr inbounds nuw %struct.AVCodecContext, ptr %73, i32 0, i32 72
  %75 = load i32, ptr %74, align 8, !tbaa !37
  %76 = icmp ne i32 %75, 0
  br i1 %76, label %77, label %92

77:                                               ; preds = %72
  %78 = load ptr, ptr %3, align 8, !tbaa !4
  %79 = getelementptr inbounds nuw %struct.AVCodecContext, ptr %78, i32 0, i32 72
  %80 = load i32, ptr %79, align 8, !tbaa !37
  %81 = icmp slt i32 %80, 128
  br i1 %81, label %87, label %82

82:                                               ; preds = %77
  %83 = load ptr, ptr %3, align 8, !tbaa !4
  %84 = getelementptr inbounds nuw %struct.AVCodecContext, ptr %83, i32 0, i32 72
  %85 = load i32, ptr %84, align 8, !tbaa !37
  %86 = icmp sgt i32 %85, 150000
  br i1 %86, label %87, label %92

87:                                               ; preds = %82, %77
  %88 = load ptr, ptr %3, align 8, !tbaa !4
  %89 = load ptr, ptr %3, align 8, !tbaa !4
  %90 = getelementptr inbounds nuw %struct.AVCodecContext, ptr %89, i32 0, i32 72
  %91 = load i32, ptr %90, align 8, !tbaa !37
  call void (ptr, i32, ptr, ...) @av_log(ptr noundef %88, i32 noundef 16, ptr noundef @.str.9, i32 noundef %91)
  store i32 -22, ptr %2, align 4
  store i32 1, ptr %5, align 4
  br label %216

92:                                               ; preds = %82, %72
  br label %93

93:                                               ; preds = %92, %68
  %94 = load ptr, ptr %3, align 8, !tbaa !4
  %95 = getelementptr inbounds nuw %struct.AVCodecContext, ptr %94, i32 0, i32 83
  %96 = load i32, ptr %95, align 8, !tbaa !43
  %97 = icmp ne i32 %96, -1
  br i1 %97, label %98, label %196

98:                                               ; preds = %93
  %99 = load ptr, ptr %3, align 8, !tbaa !4
  %100 = getelementptr inbounds nuw %struct.AVCodecContext, ptr %99, i32 0, i32 83
  %101 = load i32, ptr %100, align 8, !tbaa !43
  %102 = icmp sge i32 %101, 3
  br i1 %102, label %103, label %162

103:                                              ; preds = %98
  %104 = load ptr, ptr %4, align 8, !tbaa !29
  %105 = getelementptr inbounds nuw %struct.WavPackEncodeContext, ptr %104, i32 0, i32 27
  store i32 3, ptr %105, align 8, !tbaa !44
  %106 = load ptr, ptr %4, align 8, !tbaa !29
  %107 = getelementptr inbounds nuw %struct.WavPackEncodeContext, ptr %106, i32 0, i32 52
  store i32 9, ptr %107, align 4, !tbaa !45
  %108 = load ptr, ptr %3, align 8, !tbaa !4
  %109 = getelementptr inbounds nuw %struct.AVCodecContext, ptr %108, i32 0, i32 83
  %110 = load i32, ptr %109, align 8, !tbaa !43
  %111 = icmp sge i32 %110, 8
  br i1 %111, label %112, label %117

112:                                              ; preds = %103
  %113 = load ptr, ptr %4, align 8, !tbaa !29
  %114 = getelementptr inbounds nuw %struct.WavPackEncodeContext, ptr %113, i32 0, i32 29
  store i32 4, ptr %114, align 8, !tbaa !46
  %115 = load ptr, ptr %4, align 8, !tbaa !29
  %116 = getelementptr inbounds nuw %struct.WavPackEncodeContext, ptr %115, i32 0, i32 25
  store i32 31, ptr %116, align 8, !tbaa !47
  br label %161

117:                                              ; preds = %103
  %118 = load ptr, ptr %3, align 8, !tbaa !4
  %119 = getelementptr inbounds nuw %struct.AVCodecContext, ptr %118, i32 0, i32 83
  %120 = load i32, ptr %119, align 8, !tbaa !43
  %121 = icmp sge i32 %120, 7
  br i1 %121, label %122, label %127

122:                                              ; preds = %117
  %123 = load ptr, ptr %4, align 8, !tbaa !29
  %124 = getelementptr inbounds nuw %struct.WavPackEncodeContext, ptr %123, i32 0, i32 29
  store i32 3, ptr %124, align 8, !tbaa !46
  %125 = load ptr, ptr %4, align 8, !tbaa !29
  %126 = getelementptr inbounds nuw %struct.WavPackEncodeContext, ptr %125, i32 0, i32 25
  store i32 15, ptr %126, align 8, !tbaa !47
  br label %160

127:                                              ; preds = %117
  %128 = load ptr, ptr %3, align 8, !tbaa !4
  %129 = getelementptr inbounds nuw %struct.AVCodecContext, ptr %128, i32 0, i32 83
  %130 = load i32, ptr %129, align 8, !tbaa !43
  %131 = icmp sge i32 %130, 6
  br i1 %131, label %132, label %137

132:                                              ; preds = %127
  %133 = load ptr, ptr %4, align 8, !tbaa !29
  %134 = getelementptr inbounds nuw %struct.WavPackEncodeContext, ptr %133, i32 0, i32 29
  store i32 2, ptr %134, align 8, !tbaa !46
  %135 = load ptr, ptr %4, align 8, !tbaa !29
  %136 = getelementptr inbounds nuw %struct.WavPackEncodeContext, ptr %135, i32 0, i32 25
  store i32 15, ptr %136, align 8, !tbaa !47
  br label %159

137:                                              ; preds = %127
  %138 = load ptr, ptr %3, align 8, !tbaa !4
  %139 = getelementptr inbounds nuw %struct.AVCodecContext, ptr %138, i32 0, i32 83
  %140 = load i32, ptr %139, align 8, !tbaa !43
  %141 = icmp sge i32 %140, 5
  br i1 %141, label %142, label %147

142:                                              ; preds = %137
  %143 = load ptr, ptr %4, align 8, !tbaa !29
  %144 = getelementptr inbounds nuw %struct.WavPackEncodeContext, ptr %143, i32 0, i32 29
  store i32 1, ptr %144, align 8, !tbaa !46
  %145 = load ptr, ptr %4, align 8, !tbaa !29
  %146 = getelementptr inbounds nuw %struct.WavPackEncodeContext, ptr %145, i32 0, i32 25
  store i32 15, ptr %146, align 8, !tbaa !47
  br label %158

147:                                              ; preds = %137
  %148 = load ptr, ptr %3, align 8, !tbaa !4
  %149 = getelementptr inbounds nuw %struct.AVCodecContext, ptr %148, i32 0, i32 83
  %150 = load i32, ptr %149, align 8, !tbaa !43
  %151 = icmp sge i32 %150, 4
  br i1 %151, label %152, label %157

152:                                              ; preds = %147
  %153 = load ptr, ptr %4, align 8, !tbaa !29
  %154 = getelementptr inbounds nuw %struct.WavPackEncodeContext, ptr %153, i32 0, i32 29
  store i32 1, ptr %154, align 8, !tbaa !46
  %155 = load ptr, ptr %4, align 8, !tbaa !29
  %156 = getelementptr inbounds nuw %struct.WavPackEncodeContext, ptr %155, i32 0, i32 25
  store i32 11, ptr %156, align 8, !tbaa !47
  br label %157

157:                                              ; preds = %152, %147
  br label %158

158:                                              ; preds = %157, %142
  br label %159

159:                                              ; preds = %158, %132
  br label %160

160:                                              ; preds = %159, %122
  br label %161

161:                                              ; preds = %160, %112
  br label %195

162:                                              ; preds = %98
  %163 = load ptr, ptr %3, align 8, !tbaa !4
  %164 = getelementptr inbounds nuw %struct.AVCodecContext, ptr %163, i32 0, i32 83
  %165 = load i32, ptr %164, align 8, !tbaa !43
  %166 = icmp eq i32 %165, 2
  br i1 %166, label %167, label %172

167:                                              ; preds = %162
  %168 = load ptr, ptr %4, align 8, !tbaa !29
  %169 = getelementptr inbounds nuw %struct.WavPackEncodeContext, ptr %168, i32 0, i32 27
  store i32 2, ptr %169, align 8, !tbaa !44
  %170 = load ptr, ptr %4, align 8, !tbaa !29
  %171 = getelementptr inbounds nuw %struct.WavPackEncodeContext, ptr %170, i32 0, i32 52
  store i32 4, ptr %171, align 4, !tbaa !45
  br label %194

172:                                              ; preds = %162
  %173 = load ptr, ptr %3, align 8, !tbaa !4
  %174 = getelementptr inbounds nuw %struct.AVCodecContext, ptr %173, i32 0, i32 83
  %175 = load i32, ptr %174, align 8, !tbaa !43
  %176 = icmp eq i32 %175, 1
  br i1 %176, label %177, label %182

177:                                              ; preds = %172
  %178 = load ptr, ptr %4, align 8, !tbaa !29
  %179 = getelementptr inbounds nuw %struct.WavPackEncodeContext, ptr %178, i32 0, i32 27
  store i32 1, ptr %179, align 8, !tbaa !44
  %180 = load ptr, ptr %4, align 8, !tbaa !29
  %181 = getelementptr inbounds nuw %struct.WavPackEncodeContext, ptr %180, i32 0, i32 52
  store i32 2, ptr %181, align 4, !tbaa !45
  br label %193

182:                                              ; preds = %172
  %183 = load ptr, ptr %3, align 8, !tbaa !4
  %184 = getelementptr inbounds nuw %struct.AVCodecContext, ptr %183, i32 0, i32 83
  %185 = load i32, ptr %184, align 8, !tbaa !43
  %186 = icmp slt i32 %185, 1
  br i1 %186, label %187, label %192

187:                                              ; preds = %182
  %188 = load ptr, ptr %4, align 8, !tbaa !29
  %189 = getelementptr inbounds nuw %struct.WavPackEncodeContext, ptr %188, i32 0, i32 27
  store i32 0, ptr %189, align 8, !tbaa !44
  %190 = load ptr, ptr %4, align 8, !tbaa !29
  %191 = getelementptr inbounds nuw %struct.WavPackEncodeContext, ptr %190, i32 0, i32 52
  store i32 0, ptr %191, align 4, !tbaa !45
  br label %192

192:                                              ; preds = %187, %182
  br label %193

193:                                              ; preds = %192, %177
  br label %194

194:                                              ; preds = %193, %167
  br label %195

195:                                              ; preds = %194, %161
  br label %196

196:                                              ; preds = %195, %93
  %197 = load ptr, ptr %4, align 8, !tbaa !29
  %198 = getelementptr inbounds nuw %struct.WavPackEncodeContext, ptr %197, i32 0, i32 27
  %199 = load i32, ptr %198, align 8, !tbaa !44
  %200 = sext i32 %199 to i64
  %201 = getelementptr inbounds [4 x i16], ptr @decorr_filter_sizes, i64 0, i64 %200
  %202 = load i16, ptr %201, align 2, !tbaa !48
  %203 = zext i16 %202 to i32
  %204 = load ptr, ptr %4, align 8, !tbaa !29
  %205 = getelementptr inbounds nuw %struct.WavPackEncodeContext, ptr %204, i32 0, i32 51
  store i32 %203, ptr %205, align 8, !tbaa !50
  %206 = load ptr, ptr %4, align 8, !tbaa !29
  %207 = getelementptr inbounds nuw %struct.WavPackEncodeContext, ptr %206, i32 0, i32 27
  %208 = load i32, ptr %207, align 8, !tbaa !44
  %209 = sext i32 %208 to i64
  %210 = getelementptr inbounds [4 x ptr], ptr @decorr_filters, i64 0, i64 %209
  %211 = load ptr, ptr %210, align 8, !tbaa !51
  %212 = load ptr, ptr %4, align 8, !tbaa !29
  %213 = getelementptr inbounds nuw %struct.WavPackEncodeContext, ptr %212, i32 0, i32 56
  store ptr %211, ptr %213, align 8, !tbaa !52
  %214 = load ptr, ptr %4, align 8, !tbaa !29
  %215 = getelementptr inbounds nuw %struct.WavPackEncodeContext, ptr %214, i32 0, i32 57
  store float 2.000000e+00, ptr %215, align 8, !tbaa !53
  store i32 0, ptr %2, align 4
  store i32 1, ptr %5, align 4
  br label %216

216:                                              ; preds = %196, %87, %18
  call void @llvm.lifetime.end.p0(i64 8, ptr %4) #11
  %217 = load i32, ptr %2, align 4
  ret i32 %217
}