; Function Attrs: cold nounwind optsize uwtable
define internal range(i32 -22, 1) i32 @wavpack_encode_init(ptr noundef %0) #0 {
  %2 = getelementptr inbounds nuw i8, ptr %0, i64 32
  %3 = load ptr, ptr %2, align 8, !tbaa !4
  %4 = getelementptr inbounds nuw i8, ptr %3, i64 8
  store ptr %0, ptr %4, align 8, !tbaa !27
  %5 = getelementptr inbounds nuw i8, ptr %0, i64 356
  %6 = load i32, ptr %5, align 4, !tbaa !33
  %7 = icmp sgt i32 %6, 255
  br i1 %7, label %8, label %9

8:                                                ; preds = %1
  tail call void (ptr, i32, ptr, ...) @av_log(ptr noundef nonnull %0, i32 noundef 16, ptr noundef nonnull @.str.8, i32 noundef %6) #15
  br label %71

9:                                                ; preds = %1
  %10 = getelementptr inbounds nuw i8, ptr %0, i64 376
  %11 = load i32, ptr %10, align 8, !tbaa !34
  %.not = icmp eq i32 %11, 0
  br i1 %.not, label %12, label %26

12:                                               ; preds = %9
  %13 = getelementptr inbounds nuw i8, ptr %0, i64 344
  %14 = load i32, ptr %13, align 8, !tbaa !35
  %15 = and i32 %14, 1
  %16 = xor i32 %15, 1
  %.0 = ashr exact i32 %14, %16
  %17 = mul nsw i32 %.0, %6
  %18 = icmp sgt i32 %17, 150000
  br i1 %18, label %.lr.ph, label %.preheader.preheader

.lr.ph:                                           ; preds = %12, %.lr.ph
  %.164 = phi i32 [ %19, %.lr.ph ], [ %.0, %12 ]
  %19 = sdiv i32 %.164, 2
  %20 = mul nsw i32 %19, %6
  %21 = icmp sgt i32 %20, 150000
  br i1 %21, label %.lr.ph, label %.preheader.preheader, !llvm.loop !36

.preheader.preheader:                             ; preds = %.lr.ph, %12
  %.2.ph = phi i32 [ %.0, %12 ], [ %19, %.lr.ph ]
  br label %.preheader

.preheader:                                       ; preds = %.preheader.preheader, %.preheader
  %.2 = phi i32 [ %24, %.preheader ], [ %.2.ph, %.preheader.preheader ]
  %22 = mul nsw i32 %.2, %6
  %23 = icmp slt i32 %22, 40000
  %24 = shl nsw i32 %.2, 1
  br i1 %23, label %.preheader, label %25, !llvm.loop !38

25:                                               ; preds = %.preheader
  store i32 %.2, ptr %10, align 8, !tbaa !34
  br label %29

26:                                               ; preds = %9
  %27 = add i32 %11, -150001
  %or.cond = icmp ult i32 %27, -149873
  br i1 %or.cond, label %28, label %29

28:                                               ; preds = %26
  tail call void (ptr, i32, ptr, ...) @av_log(ptr noundef nonnull %0, i32 noundef 16, ptr noundef nonnull @.str.9, i32 noundef %11) #15
  br label %71

29:                                               ; preds = %26, %25
  %30 = getelementptr inbounds nuw i8, ptr %0, i64 424
  %31 = load i32, ptr %30, align 8, !tbaa !39
  %.not62 = icmp eq i32 %31, -1
  br i1 %.not62, label %._crit_edge, label %33

._crit_edge:                                      ; preds = %29
  %.phi.trans.insert = getelementptr inbounds nuw i8, ptr %3, i64 656
  %.pre = load i32, ptr %.phi.trans.insert, align 8, !tbaa !40
  %32 = sext i32 %.pre to i64
  br label %64

33:                                               ; preds = %29
  %34 = icmp sgt i32 %31, 2
  %35 = getelementptr inbounds nuw i8, ptr %3, i64 656
  br i1 %34, label %36, label %59

36:                                               ; preds = %33
  store i32 3, ptr %35, align 8, !tbaa !40
  %37 = getelementptr inbounds nuw i8, ptr %3, i64 804
  store i32 9, ptr %37, align 4, !tbaa !41
  %38 = icmp samesign ugt i32 %31, 7
  br i1 %38, label %39, label %42

39:                                               ; preds = %36
  %40 = getelementptr inbounds nuw i8, ptr %3, i64 664
  store i32 4, ptr %40, align 8, !tbaa !42
  %41 = getelementptr inbounds nuw i8, ptr %3, i64 648
  store i32 31, ptr %41, align 8, !tbaa !43
  br label %64

42:                                               ; preds = %36
  %43 = icmp eq i32 %31, 7
  br i1 %43, label %44, label %47

44:                                               ; preds = %42
  %45 = getelementptr inbounds nuw i8, ptr %3, i64 664
  store i32 3, ptr %45, align 8, !tbaa !42
  %46 = getelementptr inbounds nuw i8, ptr %3, i64 648
  store i32 15, ptr %46, align 8, !tbaa !43
  br label %64

47:                                               ; preds = %42
  %48 = icmp samesign ugt i32 %31, 5
  br i1 %48, label %49, label %52

49:                                               ; preds = %47
  %50 = getelementptr inbounds nuw i8, ptr %3, i64 664
  store i32 2, ptr %50, align 8, !tbaa !42
  %51 = getelementptr inbounds nuw i8, ptr %3, i64 648
  store i32 15, ptr %51, align 8, !tbaa !43
  br label %64

52:                                               ; preds = %47
  switch i32 %31, label %56 [
    i32 5, label %53
    i32 3, label %64
  ]

53:                                               ; preds = %52
  %54 = getelementptr inbounds nuw i8, ptr %3, i64 664
  store i32 1, ptr %54, align 8, !tbaa !42
  %55 = getelementptr inbounds nuw i8, ptr %3, i64 648
  store i32 15, ptr %55, align 8, !tbaa !43
  br label %64

56:                                               ; preds = %52
  %57 = getelementptr inbounds nuw i8, ptr %3, i64 664
  store i32 1, ptr %57, align 8, !tbaa !42
  %58 = getelementptr inbounds nuw i8, ptr %3, i64 648
  store i32 11, ptr %58, align 8, !tbaa !43
  br label %64

59:                                               ; preds = %33
  %60 = getelementptr inbounds nuw i8, ptr %3, i64 804
  switch i32 %31, label %63 [
    i32 2, label %61
    i32 1, label %62
  ]

61:                                               ; preds = %59
  store i32 2, ptr %35, align 8, !tbaa !40
  store i32 4, ptr %60, align 4, !tbaa !41
  br label %64

62:                                               ; preds = %59
  store i32 1, ptr %35, align 8, !tbaa !40
  store i32 2, ptr %60, align 4, !tbaa !41
  br label %64

63:                                               ; preds = %59
  store i32 0, ptr %35, align 8, !tbaa !40
  store i32 0, ptr %60, align 4, !tbaa !41
  br label %64

64:                                               ; preds = %._crit_edge, %52, %44, %53, %56, %49, %39, %62, %63, %61
  %65 = phi i64 [ %32, %._crit_edge ], [ 3, %52 ], [ 3, %44 ], [ 3, %53 ], [ 3, %56 ], [ 3, %49 ], [ 3, %39 ], [ 1, %62 ], [ 0, %63 ], [ 2, %61 ]
  %66 = getelementptr inbounds nuw i8, ptr %3, i64 800
  store i32 256, ptr %66, align 8, !tbaa !44
  %67 = getelementptr inbounds [4 x ptr], ptr @decorr_filters, i64 0, i64 %65
  %68 = load ptr, ptr %67, align 8, !tbaa !45
  %69 = getelementptr inbounds nuw i8, ptr %3, i64 2224
  store ptr %68, ptr %69, align 8, !tbaa !46
  %70 = getelementptr inbounds nuw i8, ptr %3, i64 2232
  store float 2.000000e+00, ptr %70, align 8, !tbaa !47
  br label %71

71:                                               ; preds = %64, %28, %8
  %.056 = phi i32 [ -22, %8 ], [ -22, %28 ], [ 0, %64 ]
  ret i32 %.056
}